; Function Attrs: mustprogress nounwind uwtable
define hidden void @_ZN6hermes3hbc20BytecodeDisassembler28disassembleExceptionHandlersEjRN4llvh11raw_ostreamE(ptr nocapture noundef nonnull readonly align 8 dereferenceable(20) %this, i32 noundef %funcId, ptr noundef nonnull align 8 dereferenceable(36) %OS) local_unnamed_addr #1 align 2 {
entry:
  %0 = load ptr, ptr %this, align 8
  %vtable = load ptr, ptr %0, align 8
  %vfn = getelementptr inbounds i8, ptr %vtable, i64 48
  %1 = load ptr, ptr %vfn, align 8
  %call2 = tail call { ptr, i64 } %1(ptr noundef nonnull align 8 dereferenceable(280) %0, i32 noundef %funcId) #17
  %2 = extractvalue { ptr, i64 } %call2, 0
  %3 = extractvalue { ptr, i64 } %call2, 1
  %cmp = icmp eq i64 %3, 0
  br i1 %cmp, label %return, label %if.end

if.end:                                           ; preds = %entry
  %OutBufEnd.i5.i = getelementptr inbounds i8, ptr %OS, i64 16
  %4 = load ptr, ptr %OutBufEnd.i5.i, align 8
  %OutBufCur.i6.i = getelementptr inbounds i8, ptr %OS, i64 24
  %5 = load ptr, ptr %OutBufCur.i6.i, align 8
  %sub.ptr.lhs.cast.i7.i = ptrtoint ptr %4 to i64
  %sub.ptr.rhs.cast.i8.i = ptrtoint ptr %5 to i64
  %sub.ptr.sub.i9.i = sub i64 %sub.ptr.lhs.cast.i7.i, %sub.ptr.rhs.cast.i8.i
  %cmp.i.i = icmp ult i64 %sub.ptr.sub.i9.i, 20
  br i1 %cmp.i.i, label %if.then.i.i, label %if.then4.i.i

if.then.i.i:                                      ; preds = %if.end
  %call3.i.i = tail call noundef nonnull align 8 dereferenceable(36) ptr @_ZN4llvh11raw_ostream5writeEPKcm(ptr noundef nonnull align 8 dereferenceable(36) %OS, ptr noundef nonnull @.str.42, i64 noundef 20) #17
  br label %_ZN4llvh11raw_ostreamlsEPKc.exit

if.then4.i.i:                                     ; preds = %if.end
  tail call void @llvm.memcpy.p0.p0.i64(ptr noundef nonnull align 1 dereferenceable(20) %5, ptr noundef nonnull align 1 dereferenceable(20) @.str.42, i64 20, i1 false)
  %6 = load ptr, ptr %OutBufCur.i6.i, align 8
  %add.ptr.i.i = getelementptr inbounds i8, ptr %6, i64 20
  store ptr %add.ptr.i.i, ptr %OutBufCur.i6.i, align 8
  br label %_ZN4llvh11raw_ostreamlsEPKc.exit

_ZN4llvh11raw_ostreamlsEPKc.exit:                 ; preds = %if.then.i.i, %if.then4.i.i
  %7 = and i64 %3, 4294967295
  %cmp691.not = icmp eq i64 %7, 0
  br i1 %cmp691.not, label %for.end, label %for.body.preheader

for.body.preheader:                               ; preds = %_ZN4llvh11raw_ostreamlsEPKc.exit
  %wide.trip.count = and i64 %3, 4294967295
  br label %for.body

for.body:                                         ; preds = %for.body.preheader, %_ZN4llvh11raw_ostreamlsEPKc.exit74
  %indvars.iv = phi i64 [ 0, %for.body.preheader ], [ %indvars.iv.next, %_ZN4llvh11raw_ostreamlsEPKc.exit74 ]
  %arrayidx.i = getelementptr inbounds %"struct.hermes::hbc::HBCExceptionHandlerInfo", ptr %2, i64 %indvars.iv
  %call.i = tail call noundef nonnull align 8 dereferenceable(36) ptr @_ZN4llvh11raw_ostreamlsEm(ptr noundef nonnull align 8 dereferenceable(36) %OS, i64 noundef %indvars.iv) #17
  %OutBufEnd.i5.i10 = getelementptr inbounds i8, ptr %call.i, i64 16
  %8 = load ptr, ptr %OutBufEnd.i5.i10, align 8
  %OutBufCur.i6.i11 = getelementptr inbounds i8, ptr %call.i, i64 24
  %9 = load ptr, ptr %OutBufCur.i6.i11, align 8
  %sub.ptr.lhs.cast.i7.i12 = ptrtoint ptr %8 to i64
  %sub.ptr.rhs.cast.i8.i13 = ptrtoint ptr %9 to i64
  %sub.ptr.sub.i9.i14 = sub i64 %sub.ptr.lhs.cast.i7.i12, %sub.ptr.rhs.cast.i8.i13
  %cmp.i.i15 = icmp ult i64 %sub.ptr.sub.i9.i14, 10
  br i1 %cmp.i.i15, label %if.then.i.i21, label %if.then4.i.i18

if.then.i.i21:                                    ; preds = %for.body
  %call3.i.i22 = tail call noundef nonnull align 8 dereferenceable(36) ptr @_ZN4llvh11raw_ostream5writeEPKcm(ptr noundef nonnull align 8 dereferenceable(36) %call.i, ptr noundef nonnull @.str.43, i64 noundef 10) #17
  br label %_ZN4llvh11raw_ostreamlsEPKc.exit23

if.then4.i.i18:                                   ; preds = %for.body
  tail call void @llvm.memcpy.p0.p0.i64(ptr noundef nonnull align 1 dereferenceable(10) %9, ptr noundef nonnull align 1 dereferenceable(10) @.str.43, i64 10, i1 false)
  %10 = load ptr, ptr %OutBufCur.i6.i11, align 8
  %add.ptr.i.i19 = getelementptr inbounds i8, ptr %10, i64 10
  store ptr %add.ptr.i.i19, ptr %OutBufCur.i6.i11, align 8
  br label %_ZN4llvh11raw_ostreamlsEPKc.exit23

_ZN4llvh11raw_ostreamlsEPKc.exit23:               ; preds = %if.then.i.i21, %if.then4.i.i18
  %phi.call.i20 = phi ptr [ %call3.i.i22, %if.then.i.i21 ], [ %call.i, %if.then4.i.i18 ]
  %11 = load i32, ptr %arrayidx.i, align 1
  %conv.i24 = zext i32 %11 to i64
  %call.i25 = tail call noundef nonnull align 8 dereferenceable(36) ptr @_ZN4llvh11raw_ostreamlsEm(ptr noundef nonnull align 8 dereferenceable(36) %phi.call.i20, i64 noundef %conv.i24) #17
  %OutBufEnd.i5.i27 = getelementptr inbounds i8, ptr %call.i25, i64 16
  %12 = load ptr, ptr %OutBufEnd.i5.i27, align 8
  %OutBufCur.i6.i28 = getelementptr inbounds i8, ptr %call.i25, i64 24
  %13 = load ptr, ptr %OutBufCur.i6.i28, align 8
  %sub.ptr.lhs.cast.i7.i29 = ptrtoint ptr %12 to i64
  %sub.ptr.rhs.cast.i8.i30 = ptrtoint ptr %13 to i64
  %sub.ptr.sub.i9.i31 = sub i64 %sub.ptr.lhs.cast.i7.i29, %sub.ptr.rhs.cast.i8.i30
  %cmp.i.i32 = icmp ult i64 %sub.ptr.sub.i9.i31, 8
  br i1 %cmp.i.i32, label %if.then.i.i38, label %if.then4.i.i35

if.then.i.i38:                                    ; preds = %_ZN4llvh11raw_ostreamlsEPKc.exit23
  %call3.i.i39 = tail call noundef nonnull align 8 dereferenceable(36) ptr @_ZN4llvh11raw_ostream5writeEPKcm(ptr noundef nonnull align 8 dereferenceable(36) %call.i25, ptr noundef nonnull @.str.44, i64 noundef 8) #17
  br label %_ZN4llvh11raw_ostreamlsEPKc.exit40

if.then4.i.i35:                                   ; preds = %_ZN4llvh11raw_ostreamlsEPKc.exit23
  store i64 2323048598513983532, ptr %13, align 1
  %14 = load ptr, ptr %OutBufCur.i6.i28, align 8
  %add.ptr.i.i36 = getelementptr inbounds i8, ptr %14, i64 8
  store ptr %add.ptr.i.i36, ptr %OutBufCur.i6.i28, align 8
  br label %_ZN4llvh11raw_ostreamlsEPKc.exit40

_ZN4llvh11raw_ostreamlsEPKc.exit40:               ; preds = %if.then.i.i38, %if.then4.i.i35
  %phi.call.i37 = phi ptr [ %call3.i.i39, %if.then.i.i38 ], [ %call.i25, %if.then4.i.i35 ]
  %end = getelementptr inbounds i8, ptr %arrayidx.i, i64 4
  %15 = load i32, ptr %end, align 1
  %conv.i41 = zext i32 %15 to i64
  %call.i42 = tail call noundef nonnull align 8 dereferenceable(36) ptr @_ZN4llvh11raw_ostreamlsEm(ptr noundef nonnull align 8 dereferenceable(36) %phi.call.i37, i64 noundef %conv.i41) #17
  %OutBufEnd.i5.i44 = getelementptr inbounds i8, ptr %call.i42, i64 16
  %16 = load ptr, ptr %OutBufEnd.i5.i44, align 8
  %OutBufCur.i6.i45 = getelementptr inbounds i8, ptr %call.i42, i64 24
  %17 = load ptr, ptr %OutBufCur.i6.i45, align 8
  %sub.ptr.lhs.cast.i7.i46 = ptrtoint ptr %16 to i64
  %sub.ptr.rhs.cast.i8.i47 = ptrtoint ptr %17 to i64
  %sub.ptr.sub.i9.i48 = sub i64 %sub.ptr.lhs.cast.i7.i46, %sub.ptr.rhs.cast.i8.i47
  %cmp.i.i49 = icmp ult i64 %sub.ptr.sub.i9.i48, 11
  br i1 %cmp.i.i49, label %if.then.i.i55, label %if.then4.i.i52

if.then.i.i55:                                    ; preds = %_ZN4llvh11raw_ostreamlsEPKc.exit40
  %call3.i.i56 = tail call noundef nonnull align 8 dereferenceable(36) ptr @_ZN4llvh11raw_ostream5writeEPKcm(ptr noundef nonnull align 8 dereferenceable(36) %call.i42, ptr noundef nonnull @.str.45, i64 noundef 11) #17
  br label %_ZN4llvh11raw_ostreamlsEPKc.exit57

if.then4.i.i52:                                   ; preds = %_ZN4llvh11raw_ostreamlsEPKc.exit40
  tail call void @llvm.memcpy.p0.p0.i64(ptr noundef nonnull align 1 dereferenceable(11) %17, ptr noundef nonnull align 1 dereferenceable(11) @.str.45, i64 11, i1 false)
  %18 = load ptr, ptr %OutBufCur.i6.i45, align 8
  %add.ptr.i.i53 = getelementptr inbounds i8, ptr %18, i64 11
  store ptr %add.ptr.i.i53, ptr %OutBufCur.i6.i45, align 8
  br label %_ZN4llvh11raw_ostreamlsEPKc.exit57

_ZN4llvh11raw_ostreamlsEPKc.exit57:               ; preds = %if.then.i.i55, %if.then4.i.i52
  %phi.call.i54 = phi ptr [ %call3.i.i56, %if.then.i.i55 ], [ %call.i42, %if.then4.i.i52 ]
  %target = getelementptr inbounds i8, ptr %arrayidx.i, i64 8
  %19 = load i32, ptr %target, align 1
  %conv.i58 = zext i32 %19 to i64
  %call.i59 = tail call noundef nonnull align 8 dereferenceable(36) ptr @_ZN4llvh11raw_ostreamlsEm(ptr noundef nonnull align 8 dereferenceable(36) %phi.call.i54, i64 noundef %conv.i58) #17
  %OutBufEnd.i5.i61 = getelementptr inbounds i8, ptr %call.i59, i64 16
  %20 = load ptr, ptr %OutBufEnd.i5.i61, align 8
  %OutBufCur.i6.i62 = getelementptr inbounds i8, ptr %call.i59, i64 24
  %21 = load ptr, ptr %OutBufCur.i6.i62, align 8
  %cmp.i.i66 = icmp eq ptr %20, %21
  br i1 %cmp.i.i66, label %if.then.i.i72, label %if.then4.i.i69

if.then.i.i72:                                    ; preds = %_ZN4llvh11raw_ostreamlsEPKc.exit57
  %call3.i.i73 = tail call noundef nonnull align 8 dereferenceable(36) ptr @_ZN4llvh11raw_ostream5writeEPKcm(ptr noundef nonnull align 8 dereferenceable(36) %call.i59, ptr noundef nonnull @.str.2, i64 noundef 1) #17
  br label %_ZN4llvh11raw_ostreamlsEPKc.exit74

if.then4.i.i69:                                   ; preds = %_ZN4llvh11raw_ostreamlsEPKc.exit57
  store i8 10, ptr %21, align 1
  %22 = load ptr, ptr %OutBufCur.i6.i62, align 8
  %add.ptr.i.i70 = getelementptr inbounds i8, ptr %22, i64 1
  store ptr %add.ptr.i.i70, ptr %OutBufCur.i6.i62, align 8
  br label %_ZN4llvh11raw_ostreamlsEPKc.exit74

_ZN4llvh11raw_ostreamlsEPKc.exit74:               ; preds = %if.then.i.i72, %if.then4.i.i69
  %indvars.iv.next = add nuw nsw i64 %indvars.iv, 1
  %exitcond.not = icmp eq i64 %indvars.iv.next, %wide.trip.count
  br i1 %exitcond.not, label %for.end, label %for.body, !llvm.loop !51

for.end:                                          ; preds = %_ZN4llvh11raw_ostreamlsEPKc.exit74, %_ZN4llvh11raw_ostreamlsEPKc.exit
  %23 = load ptr, ptr %OutBufEnd.i5.i, align 8
  %24 = load ptr, ptr %OutBufCur.i6.i, align 8
  %cmp.i.i81 = icmp eq ptr %23, %24
  br i1 %cmp.i.i81, label %if.then.i.i87, label %if.then4.i.i84

if.then.i.i87:                                    ; preds = %for.end
  %call3.i.i88 = tail call noundef nonnull align 8 dereferenceable(36) ptr @_ZN4llvh11raw_ostream5writeEPKcm(ptr noundef nonnull align 8 dereferenceable(36) %OS, ptr noundef nonnull @.str.2, i64 noundef 1) #17
  br label %return

if.then4.i.i84:                                   ; preds = %for.end
  store i8 10, ptr %24, align 1
  %25 = load ptr, ptr %OutBufCur.i6.i, align 8
  %add.ptr.i.i85 = getelementptr inbounds i8, ptr %25, i64 1
  store ptr %add.ptr.i.i85, ptr %OutBufCur.i6.i, align 8
  br label %return

return:                                           ; preds = %if.then4.i.i84, %if.then.i.i87, %entry
  ret void
}